; Function Attrs: mustprogress uwtable
define hidden void @_ZN17CirclesGridFinder15addHolesByGraphERKSt6vectorI5GraphSaIS1_EEbN2cv6Point_IfEE(ptr noundef nonnull align 8 dereferenceable(173) %0, ptr nocapture noundef nonnull readonly align 8 dereferenceable(24) %1, i1 noundef zeroext %2, <2 x float> %3) local_unnamed_addr #3 align 2 personality ptr @__gxx_personality_v0 {
  %5 = alloca %"class.std::vector.49", align 8
  %6 = alloca %"class.std::vector.49", align 8
  %7 = alloca %"class.std::vector.49", align 8
  %8 = alloca %"class.std::vector.49", align 8
  call void @llvm.memset.p0.i64(ptr noundef nonnull align 8 dereferenceable(24) %5, i8 0, i64 24, i1 false)
  call void @llvm.memset.p0.i64(ptr noundef nonnull align 8 dereferenceable(24) %6, i8 0, i64 24, i1 false)
  call void @llvm.memset.p0.i64(ptr noundef nonnull align 8 dereferenceable(24) %7, i8 0, i64 24, i1 false)
  call void @llvm.memset.p0.i64(ptr noundef nonnull align 8 dereferenceable(24) %8, i8 0, i64 24, i1 false)
  invoke void @_ZN17CirclesGridFinder18findCandidateHolesERSt6vectorImSaImEES3_bN2cv6Point_IfEES3_S3_(ptr noundef nonnull align 8 dereferenceable(173) %0, ptr noundef nonnull align 8 dereferenceable(24) %5, ptr noundef nonnull align 8 dereferenceable(24) %6, i1 noundef zeroext %2, <2 x float> %3, ptr noundef nonnull align 8 dereferenceable(24) %7, ptr noundef nonnull align 8 dereferenceable(24) %8)
          to label %9 unwind label %26

9:                                                ; preds = %4
  %10 = invoke noundef float @_ZN17CirclesGridFinder22computeGraphConfidenceERKSt6vectorI5GraphSaIS1_EEbRKS0_ImSaImEES9_(ptr noundef nonnull align 8 dereferenceable(173) %0, ptr noundef nonnull align 8 dereferenceable(24) %1, i1 noundef zeroext %2, ptr noundef nonnull align 8 dereferenceable(24) %5, ptr noundef nonnull align 8 dereferenceable(24) %7)
          to label %11 unwind label %26

11:                                               ; preds = %9
  %12 = invoke noundef float @_ZN17CirclesGridFinder22computeGraphConfidenceERKSt6vectorI5GraphSaIS1_EEbRKS0_ImSaImEES9_(ptr noundef nonnull align 8 dereferenceable(173) %0, ptr noundef nonnull align 8 dereferenceable(24) %1, i1 noundef zeroext %2, ptr noundef nonnull align 8 dereferenceable(24) %6, ptr noundef nonnull align 8 dereferenceable(24) %8)
          to label %13 unwind label %26

13:                                               ; preds = %11
  %14 = getelementptr inbounds i8, ptr %0, i64 128
  %15 = load float, ptr %14, align 8
  %16 = getelementptr inbounds i8, ptr %0, i64 24
  invoke void @_ZN17CirclesGridFinder12insertWinnerEfffbRKSt6vectorImSaImEES4_RS0_IS2_SaIS2_EE(float noundef %10, float noundef %12, float noundef %15, i1 noundef zeroext %2, ptr noundef nonnull align 8 dereferenceable(24) %5, ptr noundef nonnull align 8 dereferenceable(24) %6, ptr noundef nonnull align 8 dereferenceable(24) %16)
          to label %17 unwind label %26

17:                                               ; preds = %13
  %18 = load ptr, ptr %8, align 8
  %.not.i.i.i = icmp eq ptr %18, null
  br i1 %.not.i.i.i, label %_ZNSt6vectorImSaImEED2Ev.exit, label %19

19:                                               ; preds = %17
  call void @_ZdlPv(ptr noundef nonnull %18) #30
  br label %_ZNSt6vectorImSaImEED2Ev.exit

_ZNSt6vectorImSaImEED2Ev.exit:                    ; preds = %17, %19
  %20 = load ptr, ptr %7, align 8
  %.not.i.i.i11 = icmp eq ptr %20, null
  br i1 %.not.i.i.i11, label %_ZNSt6vectorImSaImEED2Ev.exit12, label %21

21:                                               ; preds = %_ZNSt6vectorImSaImEED2Ev.exit
  call void @_ZdlPv(ptr noundef nonnull %20) #30
  br label %_ZNSt6vectorImSaImEED2Ev.exit12

_ZNSt6vectorImSaImEED2Ev.exit12:                  ; preds = %_ZNSt6vectorImSaImEED2Ev.exit, %21
  %22 = load ptr, ptr %6, align 8
  %.not.i.i.i13 = icmp eq ptr %22, null
  br i1 %.not.i.i.i13, label %_ZNSt6vectorImSaImEED2Ev.exit14, label %23

23:                                               ; preds = %_ZNSt6vectorImSaImEED2Ev.exit12
  call void @_ZdlPv(ptr noundef nonnull %22) #30
  br label %_ZNSt6vectorImSaImEED2Ev.exit14

_ZNSt6vectorImSaImEED2Ev.exit14:                  ; preds = %_ZNSt6vectorImSaImEED2Ev.exit12, %23
  %24 = load ptr, ptr %5, align 8
  %.not.i.i.i15 = icmp eq ptr %24, null
  br i1 %.not.i.i.i15, label %_ZNSt6vectorImSaImEED2Ev.exit16, label %25

25:                                               ; preds = %_ZNSt6vectorImSaImEED2Ev.exit14
  call void @_ZdlPv(ptr noundef nonnull %24) #30
  br label %_ZNSt6vectorImSaImEED2Ev.exit16

_ZNSt6vectorImSaImEED2Ev.exit16:                  ; preds = %_ZNSt6vectorImSaImEED2Ev.exit14, %25
  ret void

26:                                               ; preds = %13, %11, %9, %4
  %27 = landingpad { ptr, i32 }
          cleanup
  %28 = load ptr, ptr %8, align 8
  %.not.i.i.i17 = icmp eq ptr %28, null
  br i1 %.not.i.i.i17, label %_ZNSt6vectorImSaImEED2Ev.exit18, label %29

29:                                               ; preds = %26
  call void @_ZdlPv(ptr noundef nonnull %28) #30
  br label %_ZNSt6vectorImSaImEED2Ev.exit18

_ZNSt6vectorImSaImEED2Ev.exit18:                  ; preds = %26, %29
  %30 = load ptr, ptr %7, align 8
  %.not.i.i.i19 = icmp eq ptr %30, null
  br i1 %.not.i.i.i19, label %_ZNSt6vectorImSaImEED2Ev.exit20, label %31

31:                                               ; preds = %_ZNSt6vectorImSaImEED2Ev.exit18
  call void @_ZdlPv(ptr noundef nonnull %30) #30
  br label %_ZNSt6vectorImSaImEED2Ev.exit20

_ZNSt6vectorImSaImEED2Ev.exit20:                  ; preds = %_ZNSt6vectorImSaImEED2Ev.exit18, %31
  %32 = load ptr, ptr %6, align 8
  %.not.i.i.i21 = icmp eq ptr %32, null
  br i1 %.not.i.i.i21, label %_ZNSt6vectorImSaImEED2Ev.exit22, label %33

33:                                               ; preds = %_ZNSt6vectorImSaImEED2Ev.exit20
  call void @_ZdlPv(ptr noundef nonnull %32) #30
  br label %_ZNSt6vectorImSaImEED2Ev.exit22

_ZNSt6vectorImSaImEED2Ev.exit22:                  ; preds = %_ZNSt6vectorImSaImEED2Ev.exit20, %33
  %34 = load ptr, ptr %5, align 8
  %.not.i.i.i23 = icmp eq ptr %34, null
  br i1 %.not.i.i.i23, label %_ZNSt6vectorImSaImEED2Ev.exit24, label %35

35:                                               ; preds = %_ZNSt6vectorImSaImEED2Ev.exit22
  call void @_ZdlPv(ptr noundef nonnull %34) #30
  br label %_ZNSt6vectorImSaImEED2Ev.exit24

_ZNSt6vectorImSaImEED2Ev.exit24:                  ; preds = %_ZNSt6vectorImSaImEED2Ev.exit22, %35
  resume { ptr, i32 } %27
}